(lp0
(S'version.txt'
p1
S'/usr/share/arduino/lib/version.txt'
p2
tp3
a(S'cc'
p4
S'/usr/share/arduino/hardware/tools/avr/bin/avr-gcc'
p5
tp6
a(S'make'
p7
S'/usr/bin/make'
p8
tp9
a(S'build_dir'
p10
S'.build/teensy31'
p11
tp12
a(S'arduino_core_dir'
p13
S'/usr/share/arduino/hardware/teensy/cores/teensy3'
p14
tp15
a(S'boards.txt'
p16
(lp17
S'/usr/share/arduino/hardware/teensy/boards.txt'
p18
aS'/usr/share/arduino/hardware/arduino/boards.txt'
p19
atp20
a(S'arduino_variants_dir'
p21
S'/usr/share/arduino/hardware/teensy/variants'
p22
tp23
a(S'ar'
p24
S'/usr/share/arduino/hardware/tools/avr/bin/avr-ar'
p25
tp26
a(S'arduino_libraries_dir'
p27
S'/usr/share/arduino/libraries'
p28
tp29
a(S'arduino_lib_version'
p30
ccopy_reg
_reconstructor
p31
(cino.environment
Version
p32
c__builtin__
tuple
p33
(I1
I0
I6
tp34
tp35
Rp36
tp37
a(S'objcopy'
p38
S'/usr/share/arduino/hardware/tools/avr/bin/avr-objcopy'
p39
tp40
a(S'board_models'
p41
cino.environment
BoardModels
p42
((lp43
(lp44
S'menu'
p45
a(dp46
S'keys'
p47
S'Keyboard Layout'
p48
sS'speed'
p49
S'CPU Speed'
p50
sS'usb'
p51
S'USB Type'
p52
sS'_coredir'
p53
S'/usr/share/arduino/hardware/teensy'
p54
saa(lp55
S'teensy31'
p56
a(dp57
S'name'
p58
S'Teensy 3.1'
p59
sS'menu'
p60
(dp61
S'keys'
p62
(dp63
S'da-da'
p64
(dp65
S'name'
p66
S'Danish'
p67
sS'build'
p68
(dp69
S'define1'
p70
S'-DLAYOUT_DANISH'
p71
sssS'en-us'
p72
(dp73
S'name'
p74
S'US English'
p75
sS'build'
p76
(dp77
S'define1'
p78
S'-DLAYOUT_US_ENGLISH'
p79
sssS'fr-be'
p80
(dp81
S'name'
p82
S'French Belgian'
p83
sS'build'
p84
(dp85
S'define1'
p86
S'-DLAYOUT_FRENCH_BELGIAN'
p87
sssS'fr-fr'
p88
(dp89
S'name'
p90
S'French'
p91
sS'build'
p92
(dp93
S'define1'
p94
S'-DLAYOUT_FRENCH'
p95
sssS'sv-se'
p96
(dp97
S'name'
p98
S'Swedish'
p99
sS'build'
p100
(dp101
S'define1'
p102
S'-DLAYOUT_SWEDISH'
p103
sssS'es-es'
p104
(dp105
S'name'
p106
S'Spanish'
p107
sS'build'
p108
(dp109
S'define1'
p110
S'-DLAYOUT_SPANISH'
p111
sssS'en-gb'
p112
(dp113
S'name'
p114
S'United Kingdom'
p115
sS'build'
p116
(dp117
S'define1'
p118
S'-DLAYOUT_UNITED_KINGDOM'
p119
sssS'es-mx'
p120
(dp121
S'name'
p122
S'Spanish Latin America'
p123
sS'build'
p124
(dp125
S'define1'
p126
S'-DLAYOUT_SPANISH_LATIN_AMERICA'
p127
sssS'de-de'
p128
(dp129
S'name'
p130
S'German'
p131
sS'build'
p132
(dp133
S'define1'
p134
S'-DLAYOUT_GERMAN'
p135
sssS'xx-ca'
p136
(dp137
S'name'
p138
S'Canadian Multilingual'
p139
sS'build'
p140
(dp141
S'define1'
p142
S'-DLAYOUT_CANADIAN_MULTILINGUAL'
p143
sssS'de-dm'
p144
(dp145
S'name'
p146
S'German (Mac)'
p147
sS'build'
p148
(dp149
S'define1'
p150
S'-DLAYOUT_GERMAN_MAC'
p151
sssS'usint'
p152
(dp153
S'name'
p154
S'US International'
p155
sS'build'
p156
(dp157
S'define1'
p158
S'-DLAYOUT_US_INTERNATIONAL'
p159
sssS'fr-ch'
p160
(dp161
S'name'
p162
S'French Swiss'
p163
sS'build'
p164
(dp165
S'define1'
p166
S'-DLAYOUT_FRENCH_SWISS'
p167
sssS'fr-ca'
p168
(dp169
S'name'
p170
S'Canadian French'
p171
sS'build'
p172
(dp173
S'define1'
p174
S'-DLAYOUT_CANADIAN_FRENCH'
p175
sssS'en-ie'
p176
(dp177
S'name'
p178
S'Irish'
p179
sS'build'
p180
(dp181
S'define1'
p182
S'-DLAYOUT_IRISH'
p183
sssS'it-it'
p184
(dp185
S'name'
p186
S'Italian'
p187
sS'build'
p188
(dp189
S'define1'
p190
S'-DLAYOUT_ITALIAN'
p191
sssS'no-no'
p192
(dp193
S'name'
p194
S'Norwegian'
p195
sS'build'
p196
(dp197
S'define1'
p198
S'-DLAYOUT_NORWEGIAN'
p199
sssS'is-is'
p200
(dp201
S'name'
p202
S'Icelandic'
p203
sS'build'
p204
(dp205
S'define1'
p206
S'-DLAYOUT_ICELANDIC'
p207
sssS'fi-fi'
p208
(dp209
S'name'
p210
S'Finnish'
p211
sS'build'
p212
(dp213
S'define1'
p214
S'-DLAYOUT_FINNISH'
p215
sssS'cz-cz'
p216
(dp217
S'name'
p218
S'Czech'
p219
sS'build'
p220
(dp221
S'define1'
p222
S'-DLAYOUT_CZECH'
p223
sssS'pt-pt'
p224
(dp225
S'name'
p226
S'Portuguese'
p227
sS'build'
p228
(dp229
S'define1'
p230
S'-DLAYOUT_PORTUGUESE'
p231
sssS'de-ch'
p232
(dp233
S'name'
p234
S'German Swiss'
p235
sS'build'
p236
(dp237
S'define1'
p238
S'-DLAYOUT_GERMAN_SWISS'
p239
sssS'tr-tr'
p240
(dp241
S'name'
p242
S'Turkish (partial)'
p243
sS'build'
p244
(dp245
S'define1'
p246
S'-DLAYOUT_TURKISH'
p247
sssS'pt-br'
p248
(dp249
S'name'
p250
S'Portuguese Brazilian'
p251
sS'build'
p252
(dp253
S'define1'
p254
S'-DLAYOUT_PORTUGUESE_BRAZILIAN'
p255
ssssS'speed'
p256
(dp257
S'24'
p258
(dp259
S'name'
p260
S'24 MHz'
p261
sS'build'
p262
(dp263
S'f_cpu'
p264
S'24000000'
p265
sssS'144'
p266
(dp267
S'build'
p268
(dp269
S'f_cpu'
p270
S'144000000'
p271
sssS'16nousb'
p272
(dp273
S'name'
p274
S'16 MHz (No USB)'
p275
sS'build'
p276
(dp277
S'f_cpu'
p278
S'16000000'
p279
sssS'48'
p280
(dp281
S'name'
p282
S'48 MHz'
p283
sS'build'
p284
(dp285
S'f_cpu'
p286
S'48000000'
p287
sssS'120'
p288
(dp289
S'build'
p290
(dp291
S'f_cpu'
p292
S'120000000'
p293
sssS'96'
p294
(dp295
S'name'
p296
S'96 MHz (overclock)'
p297
sS'build'
p298
(dp299
S'f_cpu'
p300
S'96000000'
p301
sssS'168'
p302
(dp303
S'build'
p304
(dp305
S'f_cpu'
p306
S'168000000'
p307
sssS'72'
p308
(dp309
S'name'
p310
S'72 MHz'
p311
sS'build'
p312
(dp313
S'f_cpu'
p314
S'72000000'
p315
sssS'8nousb'
p316
(dp317
S'name'
p318
S'8 MHz (No USB)'
p319
sS'build'
p320
(dp321
S'f_cpu'
p322
S'8000000'
p323
sssS'2nousb'
p324
(dp325
S'name'
p326
S'2 MHz (No USB)'
p327
sS'build'
p328
(dp329
S'f_cpu'
p330
S'2000000'
p331
sssS'4nousb'
p332
(dp333
S'name'
p334
S'4 MHz (No USB)'
p335
sS'build'
p336
(dp337
S'f_cpu'
p338
S'4000000'
p339
ssssS'usb'
p340
(dp341
S'flightsim'
p342
(dp343
S'fake_serial'
p344
S'teensy_gateway'
p345
sS'name'
p346
S'Flight Sim Controls'
p347
sS'build'
p348
(dp349
S'define0'
p350
S'-DUSB_FLIGHTSIM'
p351
sssS'midi'
p352
(dp353
S'fake_serial'
p354
S'teensy_gateway'
p355
sS'name'
p356
S'MIDI'
p357
sS'build'
p358
(dp359
S'define0'
p360
S'-DUSB_MIDI'
p361
sssS'hid'
p362
(dp363
S'fake_serial'
p364
S'teensy_gateway'
p365
sS'name'
p366
S'Keyboard + Mouse + Joystick'
p367
sS'build'
p368
(dp369
S'define0'
p370
S'-DUSB_HID'
p371
sssS'serial'
p372
(dp373
S'name'
p374
S'Serial'
p375
sS'build'
p376
(dp377
S'define0'
p378
S'-DUSB_SERIAL'
p379
sssS'rawhid'
p380
(dp381
S'fake_serial'
p382
S'teensy_gateway'
p383
sS'name'
p384
S'Raw HID'
p385
sS'build'
p386
(dp387
S'define0'
p388
S'-DUSB_RAWHID'
p389
sssS'serialhid'
p390
(dp391
S'name'
p392
S'Serial + Keyboard + Mouse + Joystick'
p393
sS'build'
p394
(dp395
S'define0'
p396
S'-DUSB_SERIAL_HID'
p397
sssssS'upload'
p398
(dp399
S'maximum_ram_size'
p400
S'65536'
p401
sS'protocol'
p402
S'halfkay'
p403
sS'disable_flushing'
p404
S'true'
p405
sS'avrdude_wrapper'
p406
S'teensy_reboot'
p407
sS'maximum_size'
p408
S'262144'
p409
sS'speed'
p410
S'12000000'
p411
ssS'build'
p412
(dp413
S'time_t'
p414
S'true'
p415
sS'core'
p416
S'teensy3'
p417
sS'linkoption1'
p418
S'-mthumb'
p419
sS'gnu0x'
p420
S'true'
p421
sS'cppoption1'
p422
S'-fno-rtti'
p423
sS'option3'
p424
S'-D__MK20DX256__'
p425
sS'dependency'
p426
S'true'
p427
sS'additionalobject1'
p428
S'-larm_cortexM4l_math'
p429
sS'command'
p430
(dp431
S'gcc'
p432
S'arm-none-eabi-gcc'
p433
sS'objdump'
p434
S'arm-none-eabi-objdump'
p435
sS'g++'
p436
S'arm-none-eabi-g++'
p437
sS'ar'
p438
S'arm-none-eabi-ar'
p439
sS'objcopy'
p440
S'arm-none-eabi-objcopy'
p441
sS'size'
p442
S'arm-none-eabi-size'
p443
ssS'architecture'
p444
S'arm-none-eabi'
p445
sS'post_compile_script'
p446
S'teensy_post_compile'
p447
sS'elide_constructors'
p448
S'true'
p449
sS'option4'
p450
S'-DTEENSYDUINO=120'
p451
sS'linkscript'
p452
S'mk20dx256.ld'
p453
sS'option2'
p454
S'-nostdlib'
p455
sS'cpu'
p456
S'cortex-m4'
p457
sS'mcu'
p458
S'mk20dx256'
p459
sS'option1'
p460
S'-mthumb'
p461
ssg53
S'/usr/share/arduino/hardware/teensy'
p462
sS'serial'
p463
(dp464
S'safe_baud_rates_only'
p465
S'true'
p466
sS'restart_cmd'
p467
S'true'
p468
ssS'bootloader'
p469
(dp470
S'path'
p471
S'undefined'
p472
ssaa(lp473
S'teensy3'
p474
a(dp475
S'name'
p476
S'Teensy 3.0'
p477
sS'menu'
p478
(dp479
S'keys'
p480
(dp481
S'da-da'
p482
(dp483
S'name'
p484
S'Danish'
p485
sS'build'
p486
(dp487
S'define1'
p488
S'-DLAYOUT_DANISH'
p489
sssS'en-us'
p490
(dp491
S'name'
p492
S'US English'
p493
sS'build'
p494
(dp495
S'define1'
p496
S'-DLAYOUT_US_ENGLISH'
p497
sssS'fr-be'
p498
(dp499
S'name'
p500
S'French Belgian'
p501
sS'build'
p502
(dp503
S'define1'
p504
S'-DLAYOUT_FRENCH_BELGIAN'
p505
sssS'fr-fr'
p506
(dp507
S'name'
p508
S'French'
p509
sS'build'
p510
(dp511
S'define1'
p512
S'-DLAYOUT_FRENCH'
p513
sssS'sv-se'
p514
(dp515
S'name'
p516
S'Swedish'
p517
sS'build'
p518
(dp519
S'define1'
p520
S'-DLAYOUT_SWEDISH'
p521
sssS'es-es'
p522
(dp523
S'name'
p524
S'Spanish'
p525
sS'build'
p526
(dp527
S'define1'
p528
S'-DLAYOUT_SPANISH'
p529
sssS'en-gb'
p530
(dp531
S'name'
p532
S'United Kingdom'
p533
sS'build'
p534
(dp535
S'define1'
p536
S'-DLAYOUT_UNITED_KINGDOM'
p537
sssS'es-mx'
p538
(dp539
S'name'
p540
S'Spanish Latin America'
p541
sS'build'
p542
(dp543
S'define1'
p544
S'-DLAYOUT_SPANISH_LATIN_AMERICA'
p545
sssS'de-de'
p546
(dp547
S'name'
p548
S'German'
p549
sS'build'
p550
(dp551
S'define1'
p552
S'-DLAYOUT_GERMAN'
p553
sssS'xx-ca'
p554
(dp555
S'name'
p556
S'Canadian Multilingual'
p557
sS'build'
p558
(dp559
S'define1'
p560
S'-DLAYOUT_CANADIAN_MULTILINGUAL'
p561
sssS'de-dm'
p562
(dp563
S'name'
p564
S'German (Mac)'
p565
sS'build'
p566
(dp567
S'define1'
p568
S'-DLAYOUT_GERMAN_MAC'
p569
sssS'usint'
p570
(dp571
S'name'
p572
S'US International'
p573
sS'build'
p574
(dp575
S'define1'
p576
S'-DLAYOUT_US_INTERNATIONAL'
p577
sssS'fr-ch'
p578
(dp579
S'name'
p580
S'French Swiss'
p581
sS'build'
p582
(dp583
S'define1'
p584
S'-DLAYOUT_FRENCH_SWISS'
p585
sssS'fr-ca'
p586
(dp587
S'name'
p588
S'Canadian French'
p589
sS'build'
p590
(dp591
S'define1'
p592
S'-DLAYOUT_CANADIAN_FRENCH'
p593
sssS'en-ie'
p594
(dp595
S'name'
p596
S'Irish'
p597
sS'build'
p598
(dp599
S'define1'
p600
S'-DLAYOUT_IRISH'
p601
sssS'it-it'
p602
(dp603
S'name'
p604
S'Italian'
p605
sS'build'
p606
(dp607
S'define1'
p608
S'-DLAYOUT_ITALIAN'
p609
sssS'no-no'
p610
(dp611
S'name'
p612
S'Norwegian'
p613
sS'build'
p614
(dp615
S'define1'
p616
S'-DLAYOUT_NORWEGIAN'
p617
sssS'is-is'
p618
(dp619
S'name'
p620
S'Icelandic'
p621
sS'build'
p622
(dp623
S'define1'
p624
S'-DLAYOUT_ICELANDIC'
p625
sssS'fi-fi'
p626
(dp627
S'name'
p628
S'Finnish'
p629
sS'build'
p630
(dp631
S'define1'
p632
S'-DLAYOUT_FINNISH'
p633
sssS'cz-cz'
p634
(dp635
S'name'
p636
S'Czech'
p637
sS'build'
p638
(dp639
S'define1'
p640
S'-DLAYOUT_CZECH'
p641
sssS'pt-pt'
p642
(dp643
S'name'
p644
S'Portuguese'
p645
sS'build'
p646
(dp647
S'define1'
p648
S'-DLAYOUT_PORTUGUESE'
p649
sssS'de-ch'
p650
(dp651
S'name'
p652
S'German Swiss'
p653
sS'build'
p654
(dp655
S'define1'
p656
S'-DLAYOUT_GERMAN_SWISS'
p657
sssS'tr-tr'
p658
(dp659
S'name'
p660
S'Turkish (partial)'
p661
sS'build'
p662
(dp663
S'define1'
p664
S'-DLAYOUT_TURKISH'
p665
sssS'pt-br'
p666
(dp667
S'name'
p668
S'Portuguese Brazilian'
p669
sS'build'
p670
(dp671
S'define1'
p672
S'-DLAYOUT_PORTUGUESE_BRAZILIAN'
p673
ssssS'speed'
p674
(dp675
S'24'
p676
(dp677
S'name'
p678
S'24 MHz'
p679
sS'build'
p680
(dp681
S'f_cpu'
p682
S'24000000'
p683
sssS'48'
p684
(dp685
S'name'
p686
S'48 MHz'
p687
sS'build'
p688
(dp689
S'f_cpu'
p690
S'48000000'
p691
sssS'96'
p692
(dp693
S'name'
p694
S'96 MHz (overclock)'
p695
sS'build'
p696
(dp697
S'f_cpu'
p698
S'96000000'
p699
ssssS'usb'
p700
(dp701
S'flightsim'
p702
(dp703
S'fake_serial'
p704
S'teensy_gateway'
p705
sS'name'
p706
S'Flight Sim Controls'
p707
sS'build'
p708
(dp709
S'define0'
p710
S'-DUSB_FLIGHTSIM'
p711
sssS'midi'
p712
(dp713
S'fake_serial'
p714
S'teensy_gateway'
p715
sS'name'
p716
S'MIDI'
p717
sS'build'
p718
(dp719
S'define0'
p720
S'-DUSB_MIDI'
p721
sssS'hid'
p722
(dp723
S'fake_serial'
p724
S'teensy_gateway'
p725
sS'name'
p726
S'Keyboard + Mouse + Joystick'
p727
sS'build'
p728
(dp729
S'define0'
p730
S'-DUSB_HID'
p731
sssS'serial'
p732
(dp733
S'name'
p734
S'Serial'
p735
sS'build'
p736
(dp737
S'define0'
p738
S'-DUSB_SERIAL'
p739
sssS'rawhid'
p740
(dp741
S'fake_serial'
p742
S'teensy_gateway'
p743
sS'name'
p744
S'Raw HID'
p745
sS'build'
p746
(dp747
S'define0'
p748
S'-DUSB_RAWHID'
p749
sssS'serialhid'
p750
(dp751
S'name'
p752
S'Serial + Keyboard + Mouse + Joystick'
p753
sS'build'
p754
(dp755
S'define0'
p756
S'-DUSB_SERIAL_HID'
p757
sssssS'upload'
p758
(dp759
S'maximum_ram_size'
p760
S'16384'
p761
sS'protocol'
p762
S'halfkay'
p763
sS'disable_flushing'
p764
S'true'
p765
sS'avrdude_wrapper'
p766
S'teensy_reboot'
p767
sS'maximum_size'
p768
S'131072'
p769
sS'speed'
p770
S'12000000'
p771
ssS'build'
p772
(dp773
S'time_t'
p774
S'true'
p775
sS'core'
p776
S'teensy3'
p777
sS'linkoption1'
p778
S'-mthumb'
p779
sS'gnu0x'
p780
S'true'
p781
sS'cppoption1'
p782
S'-fno-rtti'
p783
sS'option3'
p784
S'-D__MK20DX128__'
p785
sS'dependency'
p786
S'true'
p787
sS'additionalobject1'
p788
S'-larm_cortexM4l_math'
p789
sS'command'
p790
(dp791
S'gcc'
p792
S'arm-none-eabi-gcc'
p793
sS'objdump'
p794
S'arm-none-eabi-objdump'
p795
sS'g++'
p796
S'arm-none-eabi-g++'
p797
sS'ar'
p798
S'arm-none-eabi-ar'
p799
sS'objcopy'
p800
S'arm-none-eabi-objcopy'
p801
sS'size'
p802
S'arm-none-eabi-size'
p803
ssS'architecture'
p804
S'arm-none-eabi'
p805
sS'post_compile_script'
p806
S'teensy_post_compile'
p807
sS'elide_constructors'
p808
S'true'
p809
sS'option4'
p810
S'-DTEENSYDUINO=120'
p811
sS'linkscript'
p812
S'mk20dx128.ld'
p813
sS'option2'
p814
S'-nostdlib'
p815
sS'cpu'
p816
S'cortex-m4'
p817
sS'mcu'
p818
S'mk20dx128'
p819
sS'option1'
p820
S'-mthumb'
p821
ssg53
S'/usr/share/arduino/hardware/teensy'
p822
sS'serial'
p823
(dp824
S'safe_baud_rates_only'
p825
S'true'
p826
sS'restart_cmd'
p827
S'true'
p828
ssS'bootloader'
p829
(dp830
S'path'
p831
S'undefined'
p832
ssaa(lp833
S'teensy2'
p834
a(dp835
S'name'
p836
S'Teensy 2.0'
p837
sS'menu'
p838
(dp839
S'keys'
p840
(dp841
S'da-da'
p842
(dp843
S'name'
p844
S'Danish'
p845
sS'build'
p846
(dp847
S'define1'
p848
S'-DLAYOUT_DANISH'
p849
sssS'en-us'
p850
(dp851
S'name'
p852
S'US English'
p853
sS'build'
p854
(dp855
S'define1'
p856
S'-DLAYOUT_US_ENGLISH'
p857
sssS'fr-be'
p858
(dp859
S'name'
p860
S'French Belgian'
p861
sS'build'
p862
(dp863
S'define1'
p864
S'-DLAYOUT_FRENCH_BELGIAN'
p865
sssS'fr-fr'
p866
(dp867
S'name'
p868
S'French'
p869
sS'build'
p870
(dp871
S'define1'
p872
S'-DLAYOUT_FRENCH'
p873
sssS'sv-se'
p874
(dp875
S'name'
p876
S'Swedish'
p877
sS'build'
p878
(dp879
S'define1'
p880
S'-DLAYOUT_SWEDISH'
p881
sssS'es-es'
p882
(dp883
S'name'
p884
S'Spanish'
p885
sS'build'
p886
(dp887
S'define1'
p888
S'-DLAYOUT_SPANISH'
p889
sssS'en-gb'
p890
(dp891
S'name'
p892
S'United Kingdom'
p893
sS'build'
p894
(dp895
S'define1'
p896
S'-DLAYOUT_UNITED_KINGDOM'
p897
sssS'es-mx'
p898
(dp899
S'name'
p900
S'Spanish Latin America'
p901
sS'build'
p902
(dp903
S'define1'
p904
S'-DLAYOUT_SPANISH_LATIN_AMERICA'
p905
sssS'de-de'
p906
(dp907
S'name'
p908
S'German'
p909
sS'build'
p910
(dp911
S'define1'
p912
S'-DLAYOUT_GERMAN'
p913
sssS'xx-ca'
p914
(dp915
S'name'
p916
S'Canadian Multilingual'
p917
sS'build'
p918
(dp919
S'define1'
p920
S'-DLAYOUT_CANADIAN_MULTILINGUAL'
p921
sssS'de-dm'
p922
(dp923
S'name'
p924
S'German (Mac)'
p925
sS'build'
p926
(dp927
S'define1'
p928
S'-DLAYOUT_GERMAN_MAC'
p929
sssS'usint'
p930
(dp931
S'name'
p932
S'US International'
p933
sS'build'
p934
(dp935
S'define1'
p936
S'-DLAYOUT_US_INTERNATIONAL'
p937
sssS'fr-ch'
p938
(dp939
S'name'
p940
S'French Swiss'
p941
sS'build'
p942
(dp943
S'define1'
p944
S'-DLAYOUT_FRENCH_SWISS'
p945
sssS'fr-ca'
p946
(dp947
S'name'
p948
S'Canadian French'
p949
sS'build'
p950
(dp951
S'define1'
p952
S'-DLAYOUT_CANADIAN_FRENCH'
p953
sssS'en-ie'
p954
(dp955
S'name'
p956
S'Irish'
p957
sS'build'
p958
(dp959
S'define1'
p960
S'-DLAYOUT_IRISH'
p961
sssS'it-it'
p962
(dp963
S'name'
p964
S'Italian'
p965
sS'build'
p966
(dp967
S'define1'
p968
S'-DLAYOUT_ITALIAN'
p969
sssS'no-no'
p970
(dp971
S'name'
p972
S'Norwegian'
p973
sS'build'
p974
(dp975
S'define1'
p976
S'-DLAYOUT_NORWEGIAN'
p977
sssS'is-is'
p978
(dp979
S'name'
p980
S'Icelandic'
p981
sS'build'
p982
(dp983
S'define1'
p984
S'-DLAYOUT_ICELANDIC'
p985
sssS'fi-fi'
p986
(dp987
S'name'
p988
S'Finnish'
p989
sS'build'
p990
(dp991
S'define1'
p992
S'-DLAYOUT_FINNISH'
p993
sssS'cz-cz'
p994
(dp995
S'name'
p996
S'Czech'
p997
sS'build'
p998
(dp999
S'define1'
p1000
S'-DLAYOUT_CZECH'
p1001
sssS'pt-pt'
p1002
(dp1003
S'name'
p1004
S'Portuguese'
p1005
sS'build'
p1006
(dp1007
S'define1'
p1008
S'-DLAYOUT_PORTUGUESE'
p1009
sssS'de-ch'
p1010
(dp1011
S'name'
p1012
S'German Swiss'
p1013
sS'build'
p1014
(dp1015
S'define1'
p1016
S'-DLAYOUT_GERMAN_SWISS'
p1017
sssS'pt-br'
p1018
(dp1019
S'name'
p1020
S'Portuguese Brazilian'
p1021
sS'build'
p1022
(dp1023
S'define1'
p1024
S'-DLAYOUT_PORTUGUESE_BRAZILIAN'
p1025
ssssS'speed'
p1026
(dp1027
S'1'
p1028
(dp1029
S'name'
p1030
S'1 MHz'
p1031
sS'build'
p1032
(dp1033
S'f_cpu'
p1034
S'1000000L'
p1035
sssS'8'
p1036
(dp1037
S'name'
p1038
S'8 MHz'
p1039
sS'build'
p1040
(dp1041
S'f_cpu'
p1042
S'8000000L'
p1043
sssS'2'
p1044
(dp1045
S'name'
p1046
S'2 MHz'
p1047
sS'build'
p1048
(dp1049
S'f_cpu'
p1050
S'2000000L'
p1051
sssS'4'
p1052
(dp1053
S'name'
p1054
S'4 MHz'
p1055
sS'build'
p1056
(dp1057
S'f_cpu'
p1058
S'4000000L'
p1059
sssS'16'
p1060
(dp1061
S'name'
p1062
S'16 MHz'
p1063
sS'build'
p1064
(dp1065
S'f_cpu'
p1066
S'16000000L'
p1067
ssssS'usb'
p1068
(dp1069
S'sd_disk'
p1070
(dp1071
S'fake_serial'
p1072
S'teensy_gateway'
p1073
sS'name'
p1074
S'Disk(SD Card) + Keyboard'
p1075
sS'build'
p1076
(dp1077
S'define0'
p1078
S'-DUSB_DISK_SDFLASH'
p1079
sssS'flightsim'
p1080
(dp1081
S'fake_serial'
p1082
S'teensy_gateway'
p1083
sS'name'
p1084
S'Flight Sim Controls'
p1085
sS'build'
p1086
(dp1087
S'define0'
p1088
S'-DUSB_FLIGHTSIM'
p1089
sssS'midi'
p1090
(dp1091
S'fake_serial'
p1092
S'teensy_gateway'
p1093
sS'name'
p1094
S'MIDI'
p1095
sS'build'
p1096
(dp1097
S'define0'
p1098
S'-DUSB_MIDI'
p1099
sssS'serialhid'
p1100
(dp1101
S'name'
p1102
S'Serial + Keyboard + Mouse + Joystick'
p1103
sS'build'
p1104
(dp1105
S'define0'
p1106
S'-DUSB_SERIAL_HID'
p1107
sssS'hid'
p1108
(dp1109
S'fake_serial'
p1110
S'teensy_gateway'
p1111
sS'name'
p1112
S'Keyboard + Mouse + Joystick'
p1113
sS'build'
p1114
(dp1115
S'define0'
p1116
S'-DUSB_HID'
p1117
sssS'serial'
p1118
(dp1119
S'name'
p1120
S'Serial'
p1121
sS'build'
p1122
(dp1123
S'define0'
p1124
S'-DUSB_SERIAL'
p1125
sssS'rawhid'
p1126
(dp1127
S'fake_serial'
p1128
S'teensy_gateway'
p1129
sS'name'
p1130
S'Raw HID'
p1131
sS'build'
p1132
(dp1133
S'define0'
p1134
S'-DUSB_RAWHID'
p1135
sssS'int_disk'
p1136
(dp1137
S'fake_serial'
p1138
S'teensy_gateway'
p1139
sS'name'
p1140
S'Disk(Internal) + Keyboard'
p1141
sS'build'
p1142
(dp1143
S'elfpatch'
p1144
S'mktinyfat'
p1145
sS'define0'
p1146
S'-DUSB_DISK'
p1147
sssssS'upload'
p1148
(dp1149
S'maximum_ram_size'
p1150
S'2560'
p1151
sS'protocol'
p1152
S'halfkay'
p1153
sS'disable_flushing'
p1154
S'true'
p1155
sS'avrdude_wrapper'
p1156
S'teensy_reboot'
p1157
sS'maximum_size'
p1158
S'32256'
p1159
sS'speed'
p1160
S'12000000'
p1161
ssS'build'
p1162
(dp1163
S'core'
p1164
S'teensy'
p1165
sS'post_compile_script'
p1166
S'teensy_post_compile'
p1167
sS'dependency'
p1168
S'true'
p1169
sS'linker_relaxation'
p1170
S'true'
p1171
sS'elide_constructors'
p1172
S'true'
p1173
sS'serial_number'
p1174
S'true'
p1175
sS'mcu'
p1176
S'atmega32u4'
p1177
sS'cpp0x'
p1178
S'true'
p1179
sS'option1'
p1180
S'-DTEENSYDUINO=120'
p1181
ssg53
S'/usr/share/arduino/hardware/teensy'
p1182
sS'serial'
p1183
(dp1184
S'safe_baud_rates_only'
p1185
S'true'
p1186
sS'restart_cmd'
p1187
S'true'
p1188
ssS'bootloader'
p1189
(dp1190
S'path'
p1191
S'undefined'
p1192
ssaa(lp1193
S'teensypp2'
p1194
a(dp1195
S'name'
p1196
S'Teensy++ 2.0'
p1197
sS'menu'
p1198
(dp1199
S'keys'
p1200
(dp1201
S'da-da'
p1202
(dp1203
S'name'
p1204
S'Danish'
p1205
sS'build'
p1206
(dp1207
S'define1'
p1208
S'-DLAYOUT_DANISH'
p1209
sssS'en-us'
p1210
(dp1211
S'name'
p1212
S'US English'
p1213
sS'build'
p1214
(dp1215
S'define1'
p1216
S'-DLAYOUT_US_ENGLISH'
p1217
sssS'fr-be'
p1218
(dp1219
S'name'
p1220
S'French Belgian'
p1221
sS'build'
p1222
(dp1223
S'define1'
p1224
S'-DLAYOUT_FRENCH_BELGIAN'
p1225
sssS'fr-fr'
p1226
(dp1227
S'name'
p1228
S'French'
p1229
sS'build'
p1230
(dp1231
S'define1'
p1232
S'-DLAYOUT_FRENCH'
p1233
sssS'sv-se'
p1234
(dp1235
S'name'
p1236
S'Swedish'
p1237
sS'build'
p1238
(dp1239
S'define1'
p1240
S'-DLAYOUT_SWEDISH'
p1241
sssS'es-es'
p1242
(dp1243
S'name'
p1244
S'Spanish'
p1245
sS'build'
p1246
(dp1247
S'define1'
p1248
S'-DLAYOUT_SPANISH'
p1249
sssS'en-gb'
p1250
(dp1251
S'name'
p1252
S'United Kingdom'
p1253
sS'build'
p1254
(dp1255
S'define1'
p1256
S'-DLAYOUT_UNITED_KINGDOM'
p1257
sssS'es-mx'
p1258
(dp1259
S'name'
p1260
S'Spanish Latin America'
p1261
sS'build'
p1262
(dp1263
S'define1'
p1264
S'-DLAYOUT_SPANISH_LATIN_AMERICA'
p1265
sssS'de-de'
p1266
(dp1267
S'name'
p1268
S'German'
p1269
sS'build'
p1270
(dp1271
S'define1'
p1272
S'-DLAYOUT_GERMAN'
p1273
sssS'xx-ca'
p1274
(dp1275
S'name'
p1276
S'Canadian Multilingual'
p1277
sS'build'
p1278
(dp1279
S'define1'
p1280
S'-DLAYOUT_CANADIAN_MULTILINGUAL'
p1281
sssS'de-dm'
p1282
(dp1283
S'name'
p1284
S'German (Mac)'
p1285
sS'build'
p1286
(dp1287
S'define1'
p1288
S'-DLAYOUT_GERMAN_MAC'
p1289
sssS'usint'
p1290
(dp1291
S'name'
p1292
S'US International'
p1293
sS'build'
p1294
(dp1295
S'define1'
p1296
S'-DLAYOUT_US_INTERNATIONAL'
p1297
sssS'fr-ch'
p1298
(dp1299
S'name'
p1300
S'French Swiss'
p1301
sS'build'
p1302
(dp1303
S'define1'
p1304
S'-DLAYOUT_FRENCH_SWISS'
p1305
sssS'fr-ca'
p1306
(dp1307
S'name'
p1308
S'Canadian French'
p1309
sS'build'
p1310
(dp1311
S'define1'
p1312
S'-DLAYOUT_CANADIAN_FRENCH'
p1313
sssS'en-ie'
p1314
(dp1315
S'name'
p1316
S'Irish'
p1317
sS'build'
p1318
(dp1319
S'define1'
p1320
S'-DLAYOUT_IRISH'
p1321
sssS'it-it'
p1322
(dp1323
S'name'
p1324
S'Italian'
p1325
sS'build'
p1326
(dp1327
S'define1'
p1328
S'-DLAYOUT_ITALIAN'
p1329
sssS'no-no'
p1330
(dp1331
S'name'
p1332
S'Norwegian'
p1333
sS'build'
p1334
(dp1335
S'define1'
p1336
S'-DLAYOUT_NORWEGIAN'
p1337
sssS'is-is'
p1338
(dp1339
S'name'
p1340
S'Icelandic'
p1341
sS'build'
p1342
(dp1343
S'define1'
p1344
S'-DLAYOUT_ICELANDIC'
p1345
sssS'fi-fi'
p1346
(dp1347
S'name'
p1348
S'Finnish'
p1349
sS'build'
p1350
(dp1351
S'define1'
p1352
S'-DLAYOUT_FINNISH'
p1353
sssS'cz-cz'
p1354
(dp1355
S'name'
p1356
S'Czech'
p1357
sS'build'
p1358
(dp1359
S'define1'
p1360
S'-DLAYOUT_CZECH'
p1361
sssS'pt-pt'
p1362
(dp1363
S'name'
p1364
S'Portuguese'
p1365
sS'build'
p1366
(dp1367
S'define1'
p1368
S'-DLAYOUT_PORTUGUESE'
p1369
sssS'de-ch'
p1370
(dp1371
S'name'
p1372
S'German Swiss'
p1373
sS'build'
p1374
(dp1375
S'define1'
p1376
S'-DLAYOUT_GERMAN_SWISS'
p1377
sssS'pt-br'
p1378
(dp1379
S'name'
p1380
S'Portuguese Brazilian'
p1381
sS'build'
p1382
(dp1383
S'define1'
p1384
S'-DLAYOUT_PORTUGUESE_BRAZILIAN'
p1385
ssssS'speed'
p1386
(dp1387
g1028
(dp1388
S'name'
p1389
S'1 MHz'
p1390
sS'build'
p1391
(dp1392
S'f_cpu'
p1393
S'1000000L'
p1394
sssg1036
(dp1395
S'name'
p1396
S'8 MHz'
p1397
sS'build'
p1398
(dp1399
S'f_cpu'
p1400
S'8000000L'
p1401
sssg1044
(dp1402
S'name'
p1403
S'2 MHz'
p1404
sS'build'
p1405
(dp1406
S'f_cpu'
p1407
S'2000000L'
p1408
sssg1052
(dp1409
S'name'
p1410
S'4 MHz'
p1411
sS'build'
p1412
(dp1413
S'f_cpu'
p1414
S'4000000L'
p1415
sssS'16'
p1416
(dp1417
S'name'
p1418
S'16 MHz'
p1419
sS'build'
p1420
(dp1421
S'f_cpu'
p1422
S'16000000L'
p1423
ssssS'usb'
p1424
(dp1425
S'sd_disk'
p1426
(dp1427
S'fake_serial'
p1428
S'teensy_gateway'
p1429
sS'name'
p1430
S'Disk(SD Card) + Keyboard'
p1431
sS'build'
p1432
(dp1433
S'define0'
p1434
S'-DUSB_DISK_SDFLASH'
p1435
sssS'flightsim'
p1436
(dp1437
S'fake_serial'
p1438
S'teensy_gateway'
p1439
sS'name'
p1440
S'Flight Sim Controls'
p1441
sS'build'
p1442
(dp1443
S'define0'
p1444
S'-DUSB_FLIGHTSIM'
p1445
sssS'midi'
p1446
(dp1447
S'fake_serial'
p1448
S'teensy_gateway'
p1449
sS'name'
p1450
S'MIDI'
p1451
sS'build'
p1452
(dp1453
S'define0'
p1454
S'-DUSB_MIDI'
p1455
sssS'serialhid'
p1456
(dp1457
S'name'
p1458
S'Serial + Keyboard + Mouse + Joystick'
p1459
sS'build'
p1460
(dp1461
S'define0'
p1462
S'-DUSB_SERIAL_HID'
p1463
sssS'hid'
p1464
(dp1465
S'fake_serial'
p1466
S'teensy_gateway'
p1467
sS'name'
p1468
S'Keyboard + Mouse + Joystick'
p1469
sS'build'
p1470
(dp1471
S'define0'
p1472
S'-DUSB_HID'
p1473
sssS'serial'
p1474
(dp1475
S'name'
p1476
S'Serial'
p1477
sS'build'
p1478
(dp1479
S'define0'
p1480
S'-DUSB_SERIAL'
p1481
sssS'rawhid'
p1482
(dp1483
S'fake_serial'
p1484
S'teensy_gateway'
p1485
sS'name'
p1486
S'Raw HID'
p1487
sS'build'
p1488
(dp1489
S'define0'
p1490
S'-DUSB_RAWHID'
p1491
sssS'int_disk'
p1492
(dp1493
S'fake_serial'
p1494
S'teensy_gateway'
p1495
sS'name'
p1496
S'Disk(Internal) + Keyboard'
p1497
sS'build'
p1498
(dp1499
S'elfpatch'
p1500
S'mktinyfat'
p1501
sS'define0'
p1502
S'-DUSB_DISK'
p1503
sssssS'upload'
p1504
(dp1505
S'maximum_ram_size'
p1506
S'8192'
p1507
sS'protocol'
p1508
S'halfkay'
p1509
sS'disable_flushing'
p1510
S'true'
p1511
sS'avrdude_wrapper'
p1512
S'teensy_reboot'
p1513
sS'maximum_size'
p1514
S'130048'
p1515
sS'speed'
p1516
S'12000000'
p1517
ssS'build'
p1518
(dp1519
S'core'
p1520
S'teensy'
p1521
sS'post_compile_script'
p1522
S'teensy_post_compile'
p1523
sS'dependency'
p1524
S'true'
p1525
sS'linker_relaxation'
p1526
S'true'
p1527
sS'elide_constructors'
p1528
S'true'
p1529
sS'serial_number'
p1530
S'true'
p1531
sS'mcu'
p1532
S'at90usb1286'
p1533
sS'cpp0x'
p1534
S'true'
p1535
sS'option1'
p1536
S'-DTEENSYDUINO=120'
p1537
ssg53
S'/usr/share/arduino/hardware/teensy'
p1538
sS'serial'
p1539
(dp1540
S'safe_baud_rates_only'
p1541
S'true'
p1542
sS'restart_cmd'
p1543
S'true'
p1544
ssS'bootloader'
p1545
(dp1546
S'path'
p1547
S'undefined'
p1548
ssaa(lp1549
S'uno'
p1550
a(dp1551
g53
S'/usr/share/arduino/hardware/arduino'
p1552
sS'bootloader'
p1553
(dp1554
S'extended_fuses'
p1555
S'0x05'
p1556
sS'high_fuses'
p1557
S'0xde'
p1558
sS'low_fuses'
p1559
S'0xff'
p1560
sS'lock_bits'
p1561
S'0x0F'
p1562
sS'file'
p1563
S'optiboot_atmega328.hex'
p1564
sS'path'
p1565
S'optiboot'
p1566
sS'unlock_bits'
p1567
S'0x3F'
p1568
ssS'build'
p1569
(dp1570
S'core'
p1571
S'arduino'
p1572
sS'mcu'
p1573
S'atmega328p'
p1574
sS'f_cpu'
p1575
S'16000000L'
p1576
sS'variant'
p1577
S'standard'
p1578
ssS'name'
p1579
S'Arduino Uno'
p1580
sS'upload'
p1581
(dp1582
S'protocol'
p1583
S'arduino'
p1584
sS'maximum_size'
p1585
S'32256'
p1586
sS'speed'
p1587
S'115200'
p1588
ssaa(lp1589
S'atmega328'
p1590
a(dp1591
g53
S'/usr/share/arduino/hardware/arduino'
p1592
sS'bootloader'
p1593
(dp1594
S'extended_fuses'
p1595
S'0x05'
p1596
sS'high_fuses'
p1597
S'0xDA'
p1598
sS'low_fuses'
p1599
S'0xFF'
p1600
sS'lock_bits'
p1601
S'0x0F'
p1602
sS'file'
p1603
S'ATmegaBOOT_168_atmega328.hex'
p1604
sS'path'
p1605
S'atmega'
p1606
sS'unlock_bits'
p1607
S'0x3F'
p1608
ssS'build'
p1609
(dp1610
S'core'
p1611
S'arduino'
p1612
sS'mcu'
p1613
S'atmega328p'
p1614
sS'f_cpu'
p1615
S'16000000L'
p1616
sS'variant'
p1617
S'standard'
p1618
ssS'name'
p1619
S'Arduino Duemilanove w/ ATmega328'
p1620
sS'upload'
p1621
(dp1622
S'protocol'
p1623
S'arduino'
p1624
sS'maximum_size'
p1625
S'30720'
p1626
sS'speed'
p1627
S'57600'
p1628
ssaa(lp1629
S'diecimila'
p1630
a(dp1631
g53
S'/usr/share/arduino/hardware/arduino'
p1632
sS'bootloader'
p1633
(dp1634
S'extended_fuses'
p1635
S'0x00'
p1636
sS'high_fuses'
p1637
S'0xdd'
p1638
sS'low_fuses'
p1639
S'0xff'
p1640
sS'lock_bits'
p1641
S'0x0F'
p1642
sS'file'
p1643
S'ATmegaBOOT_168_diecimila.hex'
p1644
sS'path'
p1645
S'atmega'
p1646
sS'unlock_bits'
p1647
S'0x3F'
p1648
ssS'build'
p1649
(dp1650
S'core'
p1651
S'arduino'
p1652
sS'mcu'
p1653
S'atmega168'
p1654
sS'f_cpu'
p1655
S'16000000L'
p1656
sS'variant'
p1657
S'standard'
p1658
ssS'name'
p1659
S'Arduino Diecimila or Duemilanove w/ ATmega168'
p1660
sS'upload'
p1661
(dp1662
S'protocol'
p1663
S'arduino'
p1664
sS'maximum_size'
p1665
S'14336'
p1666
sS'speed'
p1667
S'19200'
p1668
ssaa(lp1669
S'nano328'
p1670
a(dp1671
g53
S'/usr/share/arduino/hardware/arduino'
p1672
sS'bootloader'
p1673
(dp1674
S'extended_fuses'
p1675
S'0x05'
p1676
sS'high_fuses'
p1677
S'0xDA'
p1678
sS'low_fuses'
p1679
S'0xFF'
p1680
sS'lock_bits'
p1681
S'0x0F'
p1682
sS'file'
p1683
S'ATmegaBOOT_168_atmega328.hex'
p1684
sS'path'
p1685
S'atmega'
p1686
sS'unlock_bits'
p1687
S'0x3F'
p1688
ssS'build'
p1689
(dp1690
S'core'
p1691
S'arduino'
p1692
sS'mcu'
p1693
S'atmega328p'
p1694
sS'f_cpu'
p1695
S'16000000L'
p1696
sS'variant'
p1697
S'eightanaloginputs'
p1698
ssS'name'
p1699
S'Arduino Nano w/ ATmega328'
p1700
sS'upload'
p1701
(dp1702
S'protocol'
p1703
S'arduino'
p1704
sS'maximum_size'
p1705
S'30720'
p1706
sS'speed'
p1707
S'57600'
p1708
ssaa(lp1709
S'nano'
p1710
a(dp1711
g53
S'/usr/share/arduino/hardware/arduino'
p1712
sS'bootloader'
p1713
(dp1714
S'extended_fuses'
p1715
S'0x00'
p1716
sS'high_fuses'
p1717
S'0xdd'
p1718
sS'low_fuses'
p1719
S'0xff'
p1720
sS'lock_bits'
p1721
S'0x0F'
p1722
sS'file'
p1723
S'ATmegaBOOT_168_diecimila.hex'
p1724
sS'path'
p1725
S'atmega'
p1726
sS'unlock_bits'
p1727
S'0x3F'
p1728
ssS'build'
p1729
(dp1730
S'core'
p1731
S'arduino'
p1732
sS'mcu'
p1733
S'atmega168'
p1734
sS'f_cpu'
p1735
S'16000000L'
p1736
sS'variant'
p1737
S'eightanaloginputs'
p1738
ssS'name'
p1739
S'Arduino Nano w/ ATmega168'
p1740
sS'upload'
p1741
(dp1742
S'protocol'
p1743
S'arduino'
p1744
sS'maximum_size'
p1745
S'14336'
p1746
sS'speed'
p1747
S'19200'
p1748
ssaa(lp1749
S'mega2560'
p1750
a(dp1751
g53
S'/usr/share/arduino/hardware/arduino'
p1752
sS'bootloader'
p1753
(dp1754
S'extended_fuses'
p1755
S'0xFD'
p1756
sS'high_fuses'
p1757
S'0xD8'
p1758
sS'low_fuses'
p1759
S'0xFF'
p1760
sS'lock_bits'
p1761
S'0x0F'
p1762
sS'file'
p1763
S'stk500boot_v2_mega2560.hex'
p1764
sS'path'
p1765
S'stk500v2'
p1766
sS'unlock_bits'
p1767
S'0x3F'
p1768
ssS'build'
p1769
(dp1770
S'core'
p1771
S'arduino'
p1772
sS'mcu'
p1773
S'atmega2560'
p1774
sS'f_cpu'
p1775
S'16000000L'
p1776
sS'variant'
p1777
S'mega'
p1778
ssS'name'
p1779
S'Arduino Mega 2560 or Mega ADK'
p1780
sS'upload'
p1781
(dp1782
S'protocol'
p1783
S'wiring'
p1784
sS'maximum_size'
p1785
S'258048'
p1786
sS'speed'
p1787
S'115200'
p1788
ssaa(lp1789
S'mega'
p1790
a(dp1791
g53
S'/usr/share/arduino/hardware/arduino'
p1792
sS'bootloader'
p1793
(dp1794
S'extended_fuses'
p1795
S'0xF5'
p1796
sS'high_fuses'
p1797
S'0xDA'
p1798
sS'low_fuses'
p1799
S'0xFF'
p1800
sS'lock_bits'
p1801
S'0x0F'
p1802
sS'file'
p1803
S'ATmegaBOOT_168_atmega1280.hex'
p1804
sS'path'
p1805
S'atmega'
p1806
sS'unlock_bits'
p1807
S'0x3F'
p1808
ssS'build'
p1809
(dp1810
S'core'
p1811
S'arduino'
p1812
sS'mcu'
p1813
S'atmega1280'
p1814
sS'f_cpu'
p1815
S'16000000L'
p1816
sS'variant'
p1817
S'mega'
p1818
ssS'name'
p1819
S'Arduino Mega (ATmega1280)'
p1820
sS'upload'
p1821
(dp1822
S'protocol'
p1823
S'arduino'
p1824
sS'maximum_size'
p1825
S'126976'
p1826
sS'speed'
p1827
S'57600'
p1828
ssaa(lp1829
S'leonardo'
p1830
a(dp1831
g53
S'/usr/share/arduino/hardware/arduino'
p1832
sS'bootloader'
p1833
(dp1834
S'extended_fuses'
p1835
S'0xcb'
p1836
sS'high_fuses'
p1837
S'0xd8'
p1838
sS'low_fuses'
p1839
S'0xff'
p1840
sS'lock_bits'
p1841
S'0x2F'
p1842
sS'file'
p1843
S'Caterina-Leonardo.hex'
p1844
sS'path'
p1845
S'caterina'
p1846
sS'unlock_bits'
p1847
S'0x3F'
p1848
ssS'build'
p1849
(dp1850
S'core'
p1851
S'arduino'
p1852
sS'f_cpu'
p1853
S'16000000L'
p1854
sS'vid'
p1855
S'0x2341'
p1856
sS'pid'
p1857
S'0x8036'
p1858
sS'variant'
p1859
S'leonardo'
p1860
sS'mcu'
p1861
S'atmega32u4'
p1862
ssS'name'
p1863
S'Arduino Leonardo'
p1864
sS'upload'
p1865
(dp1866
S'protocol'
p1867
S'avr109'
p1868
sS'maximum_size'
p1869
S'28672'
p1870
sS'speed'
p1871
S'57600'
p1872
sS'disable_flushing'
p1873
S'true'
p1874
ssaa(lp1875
S'esplora'
p1876
a(dp1877
g53
S'/usr/share/arduino/hardware/arduino'
p1878
sS'bootloader'
p1879
(dp1880
S'extended_fuses'
p1881
S'0xcb'
p1882
sS'high_fuses'
p1883
S'0xd8'
p1884
sS'low_fuses'
p1885
S'0xff'
p1886
sS'lock_bits'
p1887
S'0x2F'
p1888
sS'file'
p1889
S'Caterina-Esplora.hex'
p1890
sS'path'
p1891
S'caterina'
p1892
sS'unlock_bits'
p1893
S'0x3F'
p1894
ssS'build'
p1895
(dp1896
S'core'
p1897
S'arduino'
p1898
sS'f_cpu'
p1899
S'16000000L'
p1900
sS'vid'
p1901
S'0x2341'
p1902
sS'pid'
p1903
S'0x803C'
p1904
sS'variant'
p1905
S'leonardo'
p1906
sS'mcu'
p1907
S'atmega32u4'
p1908
ssS'name'
p1909
S'Arduino Esplora'
p1910
sS'upload'
p1911
(dp1912
S'protocol'
p1913
S'avr109'
p1914
sS'maximum_size'
p1915
S'28672'
p1916
sS'speed'
p1917
S'57600'
p1918
sS'disable_flushing'
p1919
S'true'
p1920
ssaa(lp1921
S'micro'
p1922
a(dp1923
g53
S'/usr/share/arduino/hardware/arduino'
p1924
sS'bootloader'
p1925
(dp1926
S'extended_fuses'
p1927
S'0xcb'
p1928
sS'high_fuses'
p1929
S'0xd8'
p1930
sS'low_fuses'
p1931
S'0xff'
p1932
sS'lock_bits'
p1933
S'0x2F'
p1934
sS'file'
p1935
S'Caterina-Micro.hex'
p1936
sS'path'
p1937
S'caterina'
p1938
sS'unlock_bits'
p1939
S'0x3F'
p1940
ssS'build'
p1941
(dp1942
S'core'
p1943
S'arduino'
p1944
sS'f_cpu'
p1945
S'16000000L'
p1946
sS'vid'
p1947
S'0x2341'
p1948
sS'pid'
p1949
S'0x8037'
p1950
sS'variant'
p1951
S'micro'
p1952
sS'mcu'
p1953
S'atmega32u4'
p1954
ssS'name'
p1955
S'Arduino Micro'
p1956
sS'upload'
p1957
(dp1958
S'protocol'
p1959
S'avr109'
p1960
sS'maximum_size'
p1961
S'28672'
p1962
sS'speed'
p1963
S'57600'
p1964
sS'disable_flushing'
p1965
S'true'
p1966
ssaa(lp1967
S'mini328'
p1968
a(dp1969
g53
S'/usr/share/arduino/hardware/arduino'
p1970
sS'bootloader'
p1971
(dp1972
S'extended_fuses'
p1973
S'0x05'
p1974
sS'high_fuses'
p1975
S'0xd8'
p1976
sS'low_fuses'
p1977
S'0xff'
p1978
sS'lock_bits'
p1979
S'0x0F'
p1980
sS'file'
p1981
S'optiboot_atmega328-Mini.hex'
p1982
sS'path'
p1983
S'optiboot'
p1984
sS'unlock_bits'
p1985
S'0x3F'
p1986
ssS'build'
p1987
(dp1988
S'core'
p1989
S'arduino'
p1990
sS'mcu'
p1991
S'atmega328p'
p1992
sS'f_cpu'
p1993
S'16000000L'
p1994
sS'variant'
p1995
S'eightanaloginputs'
p1996
ssS'name'
p1997
S'Arduino Mini w/ ATmega328'
p1998
sS'upload'
p1999
(dp2000
S'protocol'
p2001
S'arduino'
p2002
sS'maximum_size'
p2003
S'28672'
p2004
sS'speed'
p2005
S'115200'
p2006
ssaa(lp2007
S'mini'
p2008
a(dp2009
g53
S'/usr/share/arduino/hardware/arduino'
p2010
sS'bootloader'
p2011
(dp2012
S'extended_fuses'
p2013
S'0x00'
p2014
sS'high_fuses'
p2015
S'0xdd'
p2016
sS'low_fuses'
p2017
S'0xff'
p2018
sS'lock_bits'
p2019
S'0x0F'
p2020
sS'file'
p2021
S'ATmegaBOOT_168_ng.hex'
p2022
sS'path'
p2023
S'atmega'
p2024
sS'unlock_bits'
p2025
S'0x3F'
p2026
ssS'build'
p2027
(dp2028
S'core'
p2029
S'arduino'
p2030
sS'mcu'
p2031
S'atmega168'
p2032
sS'f_cpu'
p2033
S'16000000L'
p2034
sS'variant'
p2035
S'eightanaloginputs'
p2036
ssS'name'
p2037
S'Arduino Mini w/ ATmega168'
p2038
sS'upload'
p2039
(dp2040
S'protocol'
p2041
S'arduino'
p2042
sS'maximum_size'
p2043
S'14336'
p2044
sS'speed'
p2045
S'19200'
p2046
ssaa(lp2047
S'ethernet'
p2048
a(dp2049
g53
S'/usr/share/arduino/hardware/arduino'
p2050
sS'bootloader'
p2051
(dp2052
S'extended_fuses'
p2053
S'0x05'
p2054
sS'high_fuses'
p2055
S'0xde'
p2056
sS'low_fuses'
p2057
S'0xff'
p2058
sS'lock_bits'
p2059
S'0x0F'
p2060
sS'file'
p2061
S'optiboot_atmega328.hex'
p2062
sS'path'
p2063
S'optiboot'
p2064
sS'unlock_bits'
p2065
S'0x3F'
p2066
ssS'build'
p2067
(dp2068
S'variant'
p2069
S'ethernet'
p2070
sS'mcu'
p2071
S'atmega328p'
p2072
sS'f_cpu'
p2073
S'16000000L'
p2074
sS'core'
p2075
S'arduino'
p2076
ssS'name'
p2077
S'Arduino Ethernet'
p2078
sS'upload'
p2079
(dp2080
S'protocol'
p2081
S'arduino'
p2082
sS'maximum_size'
p2083
S'32256'
p2084
sS'speed'
p2085
S'115200'
p2086
ssaa(lp2087
S'fio'
p2088
a(dp2089
g53
S'/usr/share/arduino/hardware/arduino'
p2090
sS'bootloader'
p2091
(dp2092
S'extended_fuses'
p2093
S'0x05'
p2094
sS'high_fuses'
p2095
S'0xDA'
p2096
sS'low_fuses'
p2097
S'0xFF'
p2098
sS'lock_bits'
p2099
S'0x0F'
p2100
sS'file'
p2101
S'ATmegaBOOT_168_atmega328_pro_8MHz.hex'
p2102
sS'path'
p2103
S'arduino:atmega'
p2104
sS'unlock_bits'
p2105
S'0x3F'
p2106
ssS'build'
p2107
(dp2108
S'core'
p2109
S'arduino'
p2110
sS'mcu'
p2111
S'atmega328p'
p2112
sS'f_cpu'
p2113
S'8000000L'
p2114
sS'variant'
p2115
S'eightanaloginputs'
p2116
ssS'name'
p2117
S'Arduino Fio'
p2118
sS'upload'
p2119
(dp2120
S'protocol'
p2121
S'arduino'
p2122
sS'maximum_size'
p2123
S'30720'
p2124
sS'speed'
p2125
S'57600'
p2126
ssaa(lp2127
S'bt328'
p2128
a(dp2129
g53
S'/usr/share/arduino/hardware/arduino'
p2130
sS'bootloader'
p2131
(dp2132
S'extended_fuses'
p2133
S'0x05'
p2134
sS'high_fuses'
p2135
S'0xd8'
p2136
sS'low_fuses'
p2137
S'0xff'
p2138
sS'lock_bits'
p2139
S'0x0F'
p2140
sS'file'
p2141
S'ATmegaBOOT_168_atmega328_bt.hex'
p2142
sS'path'
p2143
S'bt'
p2144
sS'unlock_bits'
p2145
S'0x3F'
p2146
ssS'build'
p2147
(dp2148
S'core'
p2149
S'arduino'
p2150
sS'mcu'
p2151
S'atmega328p'
p2152
sS'f_cpu'
p2153
S'16000000L'
p2154
sS'variant'
p2155
S'eightanaloginputs'
p2156
ssS'name'
p2157
S'Arduino BT w/ ATmega328'
p2158
sS'upload'
p2159
(dp2160
S'protocol'
p2161
S'arduino'
p2162
sS'maximum_size'
p2163
S'28672'
p2164
sS'speed'
p2165
S'19200'
p2166
sS'disable_flushing'
p2167
S'true'
p2168
ssaa(lp2169
S'bt'
p2170
a(dp2171
g53
S'/usr/share/arduino/hardware/arduino'
p2172
sS'bootloader'
p2173
(dp2174
S'extended_fuses'
p2175
S'0x00'
p2176
sS'high_fuses'
p2177
S'0xdd'
p2178
sS'low_fuses'
p2179
S'0xff'
p2180
sS'lock_bits'
p2181
S'0x0F'
p2182
sS'file'
p2183
S'ATmegaBOOT_168.hex'
p2184
sS'path'
p2185
S'bt'
p2186
sS'unlock_bits'
p2187
S'0x3F'
p2188
ssS'build'
p2189
(dp2190
S'core'
p2191
S'arduino'
p2192
sS'mcu'
p2193
S'atmega168'
p2194
sS'f_cpu'
p2195
S'16000000L'
p2196
sS'variant'
p2197
S'eightanaloginputs'
p2198
ssS'name'
p2199
S'Arduino BT w/ ATmega168'
p2200
sS'upload'
p2201
(dp2202
S'protocol'
p2203
S'arduino'
p2204
sS'maximum_size'
p2205
S'14336'
p2206
sS'speed'
p2207
S'19200'
p2208
sS'disable_flushing'
p2209
S'true'
p2210
ssaa(lp2211
S'LilyPadUSB'
p2212
a(dp2213
g53
S'/usr/share/arduino/hardware/arduino'
p2214
sS'bootloader'
p2215
(dp2216
S'extended_fuses'
p2217
S'0xce'
p2218
sS'high_fuses'
p2219
S'0xd8'
p2220
sS'low_fuses'
p2221
S'0xff'
p2222
sS'lock_bits'
p2223
S'0x2F'
p2224
sS'file'
p2225
S'Caterina-LilyPadUSB.hex'
p2226
sS'path'
p2227
S'caterina-LilyPadUSB'
p2228
sS'unlock_bits'
p2229
S'0x3F'
p2230
ssS'build'
p2231
(dp2232
S'core'
p2233
S'arduino'
p2234
sS'f_cpu'
p2235
S'8000000L'
p2236
sS'vid'
p2237
S'0x1B4F'
p2238
sS'pid'
p2239
S'0x9208'
p2240
sS'variant'
p2241
S'leonardo'
p2242
sS'mcu'
p2243
S'atmega32u4'
p2244
ssS'name'
p2245
S'LilyPad Arduino USB'
p2246
sS'upload'
p2247
(dp2248
S'protocol'
p2249
S'avr109'
p2250
sS'maximum_size'
p2251
S'28672'
p2252
sS'speed'
p2253
S'57600'
p2254
sS'disable_flushing'
p2255
S'true'
p2256
ssaa(lp2257
S'lilypad328'
p2258
a(dp2259
g53
S'/usr/share/arduino/hardware/arduino'
p2260
sS'bootloader'
p2261
(dp2262
S'extended_fuses'
p2263
S'0x05'
p2264
sS'high_fuses'
p2265
S'0xDA'
p2266
sS'low_fuses'
p2267
S'0xFF'
p2268
sS'lock_bits'
p2269
S'0x0F'
p2270
sS'file'
p2271
S'ATmegaBOOT_168_atmega328_pro_8MHz.hex'
p2272
sS'path'
p2273
S'atmega'
p2274
sS'unlock_bits'
p2275
S'0x3F'
p2276
ssS'build'
p2277
(dp2278
S'core'
p2279
S'arduino'
p2280
sS'mcu'
p2281
S'atmega328p'
p2282
sS'f_cpu'
p2283
S'8000000L'
p2284
sS'variant'
p2285
S'standard'
p2286
ssS'name'
p2287
S'LilyPad Arduino w/ ATmega328'
p2288
sS'upload'
p2289
(dp2290
S'protocol'
p2291
S'arduino'
p2292
sS'maximum_size'
p2293
S'30720'
p2294
sS'speed'
p2295
S'57600'
p2296
ssaa(lp2297
S'lilypad'
p2298
a(dp2299
g53
S'/usr/share/arduino/hardware/arduino'
p2300
sS'bootloader'
p2301
(dp2302
S'extended_fuses'
p2303
S'0x00'
p2304
sS'high_fuses'
p2305
S'0xdd'
p2306
sS'low_fuses'
p2307
S'0xe2'
p2308
sS'lock_bits'
p2309
S'0x0F'
p2310
sS'file'
p2311
S'LilyPadBOOT_168.hex'
p2312
sS'path'
p2313
S'lilypad'
p2314
sS'unlock_bits'
p2315
S'0x3F'
p2316
ssS'build'
p2317
(dp2318
S'core'
p2319
S'arduino'
p2320
sS'mcu'
p2321
S'atmega168'
p2322
sS'f_cpu'
p2323
S'8000000L'
p2324
sS'variant'
p2325
S'standard'
p2326
ssS'name'
p2327
S'LilyPad Arduino w/ ATmega168'
p2328
sS'upload'
p2329
(dp2330
S'protocol'
p2331
S'arduino'
p2332
sS'maximum_size'
p2333
S'14336'
p2334
sS'speed'
p2335
S'19200'
p2336
ssaa(lp2337
S'pro5v328'
p2338
a(dp2339
g53
S'/usr/share/arduino/hardware/arduino'
p2340
sS'bootloader'
p2341
(dp2342
S'extended_fuses'
p2343
S'0x05'
p2344
sS'high_fuses'
p2345
S'0xDA'
p2346
sS'low_fuses'
p2347
S'0xFF'
p2348
sS'lock_bits'
p2349
S'0x0F'
p2350
sS'file'
p2351
S'ATmegaBOOT_168_atmega328.hex'
p2352
sS'path'
p2353
S'atmega'
p2354
sS'unlock_bits'
p2355
S'0x3F'
p2356
ssS'build'
p2357
(dp2358
S'core'
p2359
S'arduino'
p2360
sS'mcu'
p2361
S'atmega328p'
p2362
sS'f_cpu'
p2363
S'16000000L'
p2364
sS'variant'
p2365
S'standard'
p2366
ssS'name'
p2367
S'Arduino Pro or Pro Mini (5V, 16 MHz) w/ ATmega328'
p2368
sS'upload'
p2369
(dp2370
S'protocol'
p2371
S'arduino'
p2372
sS'maximum_size'
p2373
S'30720'
p2374
sS'speed'
p2375
S'57600'
p2376
ssaa(lp2377
S'pro5v'
p2378
a(dp2379
g53
S'/usr/share/arduino/hardware/arduino'
p2380
sS'bootloader'
p2381
(dp2382
S'extended_fuses'
p2383
S'0x00'
p2384
sS'high_fuses'
p2385
S'0xdd'
p2386
sS'low_fuses'
p2387
S'0xff'
p2388
sS'lock_bits'
p2389
S'0x0F'
p2390
sS'file'
p2391
S'ATmegaBOOT_168_diecimila.hex'
p2392
sS'path'
p2393
S'atmega'
p2394
sS'unlock_bits'
p2395
S'0x3F'
p2396
ssS'build'
p2397
(dp2398
S'core'
p2399
S'arduino'
p2400
sS'mcu'
p2401
S'atmega168'
p2402
sS'f_cpu'
p2403
S'16000000L'
p2404
sS'variant'
p2405
S'standard'
p2406
ssS'name'
p2407
S'Arduino Pro or Pro Mini (5V, 16 MHz) w/ ATmega168'
p2408
sS'upload'
p2409
(dp2410
S'protocol'
p2411
S'arduino'
p2412
sS'maximum_size'
p2413
S'14336'
p2414
sS'speed'
p2415
S'19200'
p2416
ssaa(lp2417
S'pro328'
p2418
a(dp2419
g53
S'/usr/share/arduino/hardware/arduino'
p2420
sS'bootloader'
p2421
(dp2422
S'extended_fuses'
p2423
S'0x05'
p2424
sS'high_fuses'
p2425
S'0xDA'
p2426
sS'low_fuses'
p2427
S'0xFF'
p2428
sS'lock_bits'
p2429
S'0x0F'
p2430
sS'file'
p2431
S'ATmegaBOOT_168_atmega328_pro_8MHz.hex'
p2432
sS'path'
p2433
S'atmega'
p2434
sS'unlock_bits'
p2435
S'0x3F'
p2436
ssS'build'
p2437
(dp2438
S'core'
p2439
S'arduino'
p2440
sS'mcu'
p2441
S'atmega328p'
p2442
sS'f_cpu'
p2443
S'8000000L'
p2444
sS'variant'
p2445
S'standard'
p2446
ssS'name'
p2447
S'Arduino Pro or Pro Mini (3.3V, 8 MHz) w/ ATmega328'
p2448
sS'upload'
p2449
(dp2450
S'protocol'
p2451
S'arduino'
p2452
sS'maximum_size'
p2453
S'30720'
p2454
sS'speed'
p2455
S'57600'
p2456
ssaa(lp2457
S'pro'
p2458
a(dp2459
g53
S'/usr/share/arduino/hardware/arduino'
p2460
sS'bootloader'
p2461
(dp2462
S'extended_fuses'
p2463
S'0x00'
p2464
sS'high_fuses'
p2465
S'0xdd'
p2466
sS'low_fuses'
p2467
S'0xc6'
p2468
sS'lock_bits'
p2469
S'0x0F'
p2470
sS'file'
p2471
S'ATmegaBOOT_168_pro_8MHz.hex'
p2472
sS'path'
p2473
S'atmega'
p2474
sS'unlock_bits'
p2475
S'0x3F'
p2476
ssS'build'
p2477
(dp2478
S'core'
p2479
S'arduino'
p2480
sS'mcu'
p2481
S'atmega168'
p2482
sS'f_cpu'
p2483
S'8000000L'
p2484
sS'variant'
p2485
S'standard'
p2486
ssS'name'
p2487
S'Arduino Pro or Pro Mini (3.3V, 8 MHz) w/ ATmega168'
p2488
sS'upload'
p2489
(dp2490
S'protocol'
p2491
S'arduino'
p2492
sS'maximum_size'
p2493
S'14336'
p2494
sS'speed'
p2495
S'19200'
p2496
ssaa(lp2497
S'atmega168'
p2498
a(dp2499
g53
S'/usr/share/arduino/hardware/arduino'
p2500
sS'bootloader'
p2501
(dp2502
S'extended_fuses'
p2503
S'0x00'
p2504
sS'high_fuses'
p2505
S'0xdd'
p2506
sS'low_fuses'
p2507
S'0xff'
p2508
sS'lock_bits'
p2509
S'0x0F'
p2510
sS'file'
p2511
S'ATmegaBOOT_168_ng.hex'
p2512
sS'path'
p2513
S'atmega'
p2514
sS'unlock_bits'
p2515
S'0x3F'
p2516
ssS'build'
p2517
(dp2518
S'core'
p2519
S'arduino'
p2520
sS'mcu'
p2521
S'atmega168'
p2522
sS'f_cpu'
p2523
S'16000000L'
p2524
sS'variant'
p2525
S'standard'
p2526
ssS'name'
p2527
S'Arduino NG or older w/ ATmega168'
p2528
sS'upload'
p2529
(dp2530
S'protocol'
p2531
S'arduino'
p2532
sS'maximum_size'
p2533
S'14336'
p2534
sS'speed'
p2535
S'19200'
p2536
ssaa(lp2537
S'atmega8'
p2538
a(dp2539
g53
S'/usr/share/arduino/hardware/arduino'
p2540
sS'bootloader'
p2541
(dp2542
S'high_fuses'
p2543
S'0xca'
p2544
sS'low_fuses'
p2545
S'0xdf'
p2546
sS'lock_bits'
p2547
S'0x0F'
p2548
sS'file'
p2549
S'ATmegaBOOT-prod-firmware-2009-11-07.hex'
p2550
sS'path'
p2551
S'atmega8'
p2552
sS'unlock_bits'
p2553
S'0x3F'
p2554
ssS'build'
p2555
(dp2556
S'core'
p2557
S'arduino'
p2558
sS'mcu'
p2559
S'atmega8'
p2560
sS'f_cpu'
p2561
S'16000000L'
p2562
sS'variant'
p2563
S'standard'
p2564
ssS'name'
p2565
S'Arduino NG or older w/ ATmega8'
p2566
sS'upload'
p2567
(dp2568
S'protocol'
p2569
S'arduino'
p2570
sS'maximum_size'
p2571
S'7168'
p2572
sS'speed'
p2573
S'19200'
p2574
ssaa(lp2575
S'robotControl'
p2576
a(dp2577
g53
S'/usr/share/arduino/hardware/arduino'
p2578
sS'bootloader'
p2579
(dp2580
S'extended_fuses'
p2581
S'0xcb'
p2582
sS'high_fuses'
p2583
S'0xd8'
p2584
sS'low_fuses'
p2585
S'0xff'
p2586
sS'lock_bits'
p2587
S'0x2F'
p2588
sS'file'
p2589
S'Caterina-Robot-Control.hex'
p2590
sS'path'
p2591
S'caterina-Arduino_Robot'
p2592
sS'unlock_bits'
p2593
S'0x3F'
p2594
ssS'build'
p2595
(dp2596
S'core'
p2597
S'robot'
p2598
sS'f_cpu'
p2599
S'16000000L'
p2600
sS'vid'
p2601
S'0x2341'
p2602
sS'pid'
p2603
S'0x8038'
p2604
sS'variant'
p2605
S'robot_control'
p2606
sS'mcu'
p2607
S'atmega32u4'
p2608
ssS'name'
p2609
S'Arduino Robot Control'
p2610
sS'upload'
p2611
(dp2612
S'protocol'
p2613
S'avr109'
p2614
sS'maximum_size'
p2615
S'28672'
p2616
sS'speed'
p2617
S'57600'
p2618
sS'disable_flushing'
p2619
S'true'
p2620
ssaa(lp2621
S'robotMotor'
p2622
a(dp2623
g53
S'/usr/share/arduino/hardware/arduino'
p2624
sS'bootloader'
p2625
(dp2626
S'extended_fuses'
p2627
S'0xcb'
p2628
sS'high_fuses'
p2629
S'0xd8'
p2630
sS'low_fuses'
p2631
S'0xff'
p2632
sS'lock_bits'
p2633
S'0x2F'
p2634
sS'file'
p2635
S'Caterina-Robot-Motor.hex'
p2636
sS'path'
p2637
S'caterina-Arduino_Robot'
p2638
sS'unlock_bits'
p2639
S'0x3F'
p2640
ssS'build'
p2641
(dp2642
S'core'
p2643
S'robot'
p2644
sS'f_cpu'
p2645
S'16000000L'
p2646
sS'vid'
p2647
S'0x2341'
p2648
sS'pid'
p2649
S'0x8039'
p2650
sS'variant'
p2651
S'robot_motor'
p2652
sS'mcu'
p2653
S'atmega32u4'
p2654
ssS'name'
p2655
S'Arduino Robot Motor'
p2656
sS'upload'
p2657
(dp2658
S'protocol'
p2659
S'avr109'
p2660
sS'maximum_size'
p2661
S'28672'
p2662
sS'speed'
p2663
S'57600'
p2664
sS'disable_flushing'
p2665
S'true'
p2666
ssaatp2667
Rp2668
(dp2669
S'default'
p2670
S'uno'
p2671
sbtp2672
a(S'cxx'
p2673
S'/usr/share/arduino/hardware/tools/avr/bin/avr-g++'
p2674
tp2675
a.